; Function Attrs: nounwind uwtable
define i32 @dt_lib_sort_plugins(ptr noundef %0, ptr noundef %1) #0 {
  %3 = getelementptr inbounds nuw i8, ptr %0, i64 208
  %4 = load ptr, ptr %3, align 8, !tbaa !76
  %.not.i = icmp eq ptr %4, null
  br i1 %.not.i, label %8, label %5

5:                                                ; preds = %2
  %6 = tail call i32 %4(ptr noundef nonnull %0) #19
  %7 = add nsw i32 %6, 1
  br label %8

8:                                                ; preds = %5, %2
  %9 = phi i32 [ %7, %5 ], [ 0, %2 ]
  %10 = tail call fastcc ptr @_get_lib_view_path(ptr noundef nonnull %0, ptr noundef null, ptr noundef nonnull @.str.49)
  %.not10.i = icmp eq ptr %10, null
  br i1 %.not10.i, label %_lib_position.exit, label %11

11:                                               ; preds = %8
  %12 = tail call i32 @dt_conf_key_exists(ptr noundef nonnull %10) #19
  %.not11.i = icmp eq i32 %12, 0
  br i1 %.not11.i, label %_lib_position.exit, label %13

13:                                               ; preds = %11
  %14 = tail call i32 @dt_conf_get_int(ptr noundef nonnull %10) #19
  br label %_lib_position.exit

_lib_position.exit:                               ; preds = %8, %11, %13
  %.0.i = phi i32 [ %14, %13 ], [ %9, %11 ], [ %9, %8 ]
  tail call void @g_free(ptr noundef %10) #19
  %15 = icmp slt i32 %.0.i, 0
  %16 = load ptr, ptr %3, align 8, !tbaa !76
  %.not.i6 = icmp eq ptr %16, null
  br i1 %15, label %17, label %29

17:                                               ; preds = %_lib_position.exit
  br i1 %.not.i6, label %21, label %18

18:                                               ; preds = %17
  %19 = tail call i32 %16(ptr noundef nonnull %0) #19
  %20 = add nsw i32 %19, 1
  br label %21

21:                                               ; preds = %18, %17
  %22 = phi i32 [ %20, %18 ], [ 0, %17 ]
  %23 = tail call fastcc ptr @_get_lib_view_path(ptr noundef nonnull %0, ptr noundef null, ptr noundef nonnull @.str.49)
  %.not10.i7 = icmp eq ptr %23, null
  br i1 %.not10.i7, label %_lib_position.exit10, label %24

24:                                               ; preds = %21
  %25 = tail call i32 @dt_conf_key_exists(ptr noundef nonnull %23) #19
  %.not11.i8 = icmp eq i32 %25, 0
  br i1 %.not11.i8, label %_lib_position.exit10, label %26

26:                                               ; preds = %24
  %27 = tail call i32 @dt_conf_get_int(ptr noundef nonnull %23) #19
  br label %_lib_position.exit10

_lib_position.exit10:                             ; preds = %21, %24, %26
  %.0.i9 = phi i32 [ %27, %26 ], [ %22, %24 ], [ %22, %21 ]
  tail call void @g_free(ptr noundef %23) #19
  %28 = sub nsw i32 0, %.0.i9
  br label %40

29:                                               ; preds = %_lib_position.exit
  br i1 %.not.i6, label %33, label %30

30:                                               ; preds = %29
  %31 = tail call i32 %16(ptr noundef nonnull %0) #19
  %32 = add nsw i32 %31, 1
  br label %33

33:                                               ; preds = %30, %29
  %34 = phi i32 [ %32, %30 ], [ 0, %29 ]
  %35 = tail call fastcc ptr @_get_lib_view_path(ptr noundef nonnull %0, ptr noundef null, ptr noundef nonnull @.str.49)
  %.not10.i12 = icmp eq ptr %35, null
  br i1 %.not10.i12, label %_lib_position.exit15, label %36

36:                                               ; preds = %33
  %37 = tail call i32 @dt_conf_key_exists(ptr noundef nonnull %35) #19
  %.not11.i13 = icmp eq i32 %37, 0
  br i1 %.not11.i13, label %_lib_position.exit15, label %38

38:                                               ; preds = %36
  %39 = tail call i32 @dt_conf_get_int(ptr noundef nonnull %35) #19
  br label %_lib_position.exit15

_lib_position.exit15:                             ; preds = %33, %36, %38
  %.0.i14 = phi i32 [ %39, %38 ], [ %34, %36 ], [ %34, %33 ]
  tail call void @g_free(ptr noundef %35) #19
  br label %40

40:                                               ; preds = %_lib_position.exit15, %_lib_position.exit10
  %41 = phi i32 [ %28, %_lib_position.exit10 ], [ %.0.i14, %_lib_position.exit15 ]
  %42 = getelementptr inbounds nuw i8, ptr %1, i64 208
  %43 = load ptr, ptr %42, align 8, !tbaa !76
  %.not.i16 = icmp eq ptr %43, null
  br i1 %.not.i16, label %47, label %44

44:                                               ; preds = %40
  %45 = tail call i32 %43(ptr noundef nonnull %1) #19
  %46 = add nsw i32 %45, 1
  br label %47

47:                                               ; preds = %44, %40
  %48 = phi i32 [ %46, %44 ], [ 0, %40 ]
  %49 = tail call fastcc ptr @_get_lib_view_path(ptr noundef nonnull %1, ptr noundef null, ptr noundef nonnull @.str.49)
  %.not10.i17 = icmp eq ptr %49, null
  br i1 %.not10.i17, label %_lib_position.exit20, label %50

50:                                               ; preds = %47
  %51 = tail call i32 @dt_conf_key_exists(ptr noundef nonnull %49) #19
  %.not11.i18 = icmp eq i32 %51, 0
  br i1 %.not11.i18, label %_lib_position.exit20, label %52

52:                                               ; preds = %50
  %53 = tail call i32 @dt_conf_get_int(ptr noundef nonnull %49) #19
  br label %_lib_position.exit20

_lib_position.exit20:                             ; preds = %47, %50, %52
  %.0.i19 = phi i32 [ %53, %52 ], [ %48, %50 ], [ %48, %47 ]
  tail call void @g_free(ptr noundef %49) #19
  %54 = icmp slt i32 %.0.i19, 0
  %55 = load ptr, ptr %42, align 8, !tbaa !76
  %.not.i21 = icmp eq ptr %55, null
  br i1 %54, label %56, label %68

56:                                               ; preds = %_lib_position.exit20
  br i1 %.not.i21, label %60, label %57

57:                                               ; preds = %56
  %58 = tail call i32 %55(ptr noundef nonnull %1) #19
  %59 = add nsw i32 %58, 1
  br label %60

60:                                               ; preds = %57, %56
  %61 = phi i32 [ %59, %57 ], [ 0, %56 ]
  %62 = tail call fastcc ptr @_get_lib_view_path(ptr noundef nonnull %1, ptr noundef null, ptr noundef nonnull @.str.49)
  %.not10.i22 = icmp eq ptr %62, null
  br i1 %.not10.i22, label %_lib_position.exit25, label %63

63:                                               ; preds = %60
  %64 = tail call i32 @dt_conf_key_exists(ptr noundef nonnull %62) #19
  %.not11.i23 = icmp eq i32 %64, 0
  br i1 %.not11.i23, label %_lib_position.exit25, label %65

65:                                               ; preds = %63
  %66 = tail call i32 @dt_conf_get_int(ptr noundef nonnull %62) #19
  br label %_lib_position.exit25

_lib_position.exit25:                             ; preds = %60, %63, %65
  %.0.i24 = phi i32 [ %66, %65 ], [ %61, %63 ], [ %61, %60 ]
  tail call void @g_free(ptr noundef %62) #19
  %67 = sub nsw i32 0, %.0.i24
  br label %79

68:                                               ; preds = %_lib_position.exit20
  br i1 %.not.i21, label %72, label %69

69:                                               ; preds = %68
  %70 = tail call i32 %55(ptr noundef nonnull %1) #19
  %71 = add nsw i32 %70, 1
  br label %72

72:                                               ; preds = %69, %68
  %73 = phi i32 [ %71, %69 ], [ 0, %68 ]
  %74 = tail call fastcc ptr @_get_lib_view_path(ptr noundef nonnull %1, ptr noundef null, ptr noundef nonnull @.str.49)
  %.not10.i27 = icmp eq ptr %74, null
  br i1 %.not10.i27, label %_lib_position.exit30, label %75

75:                                               ; preds = %72
  %76 = tail call i32 @dt_conf_key_exists(ptr noundef nonnull %74) #19
  %.not11.i28 = icmp eq i32 %76, 0
  br i1 %.not11.i28, label %_lib_position.exit30, label %77

77:                                               ; preds = %75
  %78 = tail call i32 @dt_conf_get_int(ptr noundef nonnull %74) #19
  br label %_lib_position.exit30

_lib_position.exit30:                             ; preds = %72, %75, %77
  %.0.i29 = phi i32 [ %78, %77 ], [ %73, %75 ], [ %73, %72 ]
  tail call void @g_free(ptr noundef %74) #19
  br label %79

79:                                               ; preds = %_lib_position.exit30, %_lib_position.exit25
  %80 = phi i32 [ %67, %_lib_position.exit25 ], [ %.0.i29, %_lib_position.exit30 ]
  %81 = sub nsw i32 %41, %80
  ret i32 %81
}